target datalayout = "e-m:e-p270:32:32-p271:32:32-p272:64:64-i64:64-i128:128-f80:128-n8:16:32:64-S128"
target triple = "x86_64-pc-linux-gnu"

%class.QString = type { %struct.QArrayDataPointer }
%struct.QArrayDataPointer = type { ptr, ptr, i64 }
%class.ImportTextDialog = type <{ %class.QDialog, ptr, %class.QMap, ptr, ptr, %struct.text_import_info_t, %class.QString, i8, i8, i8, i8, i8, i8, i8, i8, i8, i8, i8, i8, i8, i8, i8, i8, i8, [7 x i8] }>
%class.QDialog = type { %class.QWidget }
%class.QWidget = type { %class.QObject, %class.QPaintDevice.base, ptr }
%class.QObject = type { ptr, %class.QScopedPointer }
%class.QScopedPointer = type { ptr }
%class.QPaintDevice.base = type <{ ptr, i16 }>
%class.QMap = type { %"class.QtPrivate::QExplicitlySharedDataPointerV2" }
%"class.QtPrivate::QExplicitlySharedDataPointerV2" = type { ptr }
%struct.text_import_info_t = type { ptr, ptr, i32, %struct.anon, %struct.anon.0, ptr, i32, ptr, i32, i32, i8, %union.anon, %union.anon.1, i32, i32, i32, i32, i32, ptr, i32, i32, i32 }
%struct.anon = type { ptr, i32, i8, i8, i8 }
%struct.anon.0 = type { ptr, ptr, i32, ptr, ptr }
%union.anon = type { i32, [12 x i8] }
%union.anon.1 = type { i32, [12 x i8] }
%class.Ui_ImportTextDialog = type { ptr, ptr, ptr, ptr, ptr, ptr, ptr, ptr, ptr, ptr, ptr, ptr, ptr, ptr, ptr, ptr, ptr, ptr, ptr, ptr, ptr, ptr, ptr, ptr, ptr, ptr, ptr, ptr, ptr, ptr, ptr, ptr, ptr, ptr, ptr, ptr, ptr, ptr, ptr, ptr, ptr, ptr, ptr, ptr, ptr, ptr, ptr, ptr, ptr, ptr, ptr, ptr, ptr, ptr, ptr, ptr, ptr, ptr, ptr, ptr, ptr, ptr, ptr, ptr, ptr, ptr, ptr, ptr, ptr, ptr, ptr, ptr, ptr, ptr, ptr, ptr, ptr, ptr, ptr, ptr, ptr, ptr, ptr, ptr, ptr, ptr, ptr, ptr, ptr, ptr, ptr, ptr, ptr, ptr, ptr }

; Function Attrs: mustprogress null_pointer_is_valid sspstrong uwtable
define void @_ZN16ImportTextDialog18enableFieldWidgetsEbb(ptr noundef align 8 dereferenceable_or_null(305) %0, i1 noundef zeroext %1, i1 noundef zeroext %2) #4 align 2 {
  %4 = alloca ptr, align 8
  %5 = alloca i8, align 1
  %6 = alloca i8, align 1
  store ptr %0, ptr %4, align 8
  %7 = zext i1 %1 to i8
  store i8 %7, ptr %5, align 1
  %8 = zext i1 %2 to i8
  store i8 %8, ptr %6, align 1
  %9 = load ptr, ptr %4, align 8
  %10 = getelementptr inbounds nuw %class.ImportTextDialog, ptr %9, i32 0, i32 1
  %11 = load ptr, ptr %10, align 8
  %12 = getelementptr inbounds nuw %class.Ui_ImportTextDialog, ptr %11, i32 0, i32 43
  %13 = load ptr, ptr %12, align 8
  %14 = load i8, ptr %5, align 1, !range !11, !noundef !12
  %15 = trunc i8 %14 to i1
  call void @_ZN7QWidget10setEnabledEb(ptr noundef align 8 dereferenceable_or_null(40) %13, i1 noundef zeroext %15)
  %16 = getelementptr inbounds nuw %class.ImportTextDialog, ptr %9, i32 0, i32 1
  %17 = load ptr, ptr %16, align 8
  %18 = getelementptr inbounds nuw %class.Ui_ImportTextDialog, ptr %17, i32 0, i32 44
  %19 = load ptr, ptr %18, align 8
  %20 = load i8, ptr %5, align 1, !range !11, !noundef !12
  %21 = trunc i8 %20 to i1
  call void @_ZN7QWidget10setEnabledEb(ptr noundef align 8 dereferenceable_or_null(40) %19, i1 noundef zeroext %21)
  %22 = getelementptr inbounds nuw %class.ImportTextDialog, ptr %9, i32 0, i32 1
  %23 = load ptr, ptr %22, align 8
  %24 = getelementptr inbounds nuw %class.Ui_ImportTextDialog, ptr %23, i32 0, i32 45
  %25 = load ptr, ptr %24, align 8
  %26 = load i8, ptr %5, align 1, !range !11, !noundef !12
  %27 = trunc i8 %26 to i1
  call void @_ZN7QWidget10setEnabledEb(ptr noundef align 8 dereferenceable_or_null(40) %25, i1 noundef zeroext %27)
  %28 = getelementptr inbounds nuw %class.ImportTextDialog, ptr %9, i32 0, i32 1
  %29 = load ptr, ptr %28, align 8
  %30 = getelementptr inbounds nuw %class.Ui_ImportTextDialog, ptr %29, i32 0, i32 48
  %31 = load ptr, ptr %30, align 8
  %32 = load i8, ptr %6, align 1, !range !11, !noundef !12
  %33 = trunc i8 %32 to i1
  call void @_ZN7QWidget10setEnabledEb(ptr noundef align 8 dereferenceable_or_null(40) %31, i1 noundef zeroext %33)
  %34 = getelementptr inbounds nuw %class.ImportTextDialog, ptr %9, i32 0, i32 1
  %35 = load ptr, ptr %34, align 8
  %36 = getelementptr inbounds nuw %class.Ui_ImportTextDialog, ptr %35, i32 0, i32 49
  %37 = load ptr, ptr %36, align 8
  %38 = load i8, ptr %6, align 1, !range !11, !noundef !12
  %39 = trunc i8 %38 to i1
  call void @_ZN7QWidget10setEnabledEb(ptr noundef align 8 dereferenceable_or_null(40) %37, i1 noundef zeroext %39)
  %40 = getelementptr inbounds nuw %class.ImportTextDialog, ptr %9, i32 0, i32 1
  %41 = load ptr, ptr %40, align 8
  %42 = getelementptr inbounds nuw %class.Ui_ImportTextDialog, ptr %41, i32 0, i32 50
  %43 = load ptr, ptr %42, align 8
  %44 = load i8, ptr %6, align 1, !range !11, !noundef !12
  %45 = trunc i8 %44 to i1
  call void @_ZN7QWidget10setEnabledEb(ptr noundef align 8 dereferenceable_or_null(40) %43, i1 noundef zeroext %45)
  ret void
}