; Function Attrs: mustprogress null_pointer_is_valid sspstrong uwtable
define void @_ZN16ImportTextDialog18enableFieldWidgetsEbb(ptr noundef readonly align 8 captures(none) dereferenceable_or_null(305) %0, i1 noundef zeroext %1, i1 noundef zeroext %2) local_unnamed_addr #2 align 2 {
  %4 = getelementptr inbounds nuw i8, ptr %0, i64 40
  %5 = load ptr, ptr %4, align 8
  %6 = getelementptr inbounds nuw i8, ptr %5, i64 344
  %7 = load ptr, ptr %6, align 8
  tail call void @_ZN7QWidget10setEnabledEb(ptr noundef align 8 dereferenceable_or_null(40) %7, i1 noundef zeroext %1)
  %8 = load ptr, ptr %4, align 8
  %9 = getelementptr inbounds nuw i8, ptr %8, i64 352
  %10 = load ptr, ptr %9, align 8
  tail call void @_ZN7QWidget10setEnabledEb(ptr noundef align 8 dereferenceable_or_null(40) %10, i1 noundef zeroext %1)
  %11 = load ptr, ptr %4, align 8
  %12 = getelementptr inbounds nuw i8, ptr %11, i64 360
  %13 = load ptr, ptr %12, align 8
  tail call void @_ZN7QWidget10setEnabledEb(ptr noundef align 8 dereferenceable_or_null(40) %13, i1 noundef zeroext %1)
  %14 = load ptr, ptr %4, align 8
  %15 = getelementptr inbounds nuw i8, ptr %14, i64 384
  %16 = load ptr, ptr %15, align 8
  tail call void @_ZN7QWidget10setEnabledEb(ptr noundef align 8 dereferenceable_or_null(40) %16, i1 noundef zeroext %2)
  %17 = load ptr, ptr %4, align 8
  %18 = getelementptr inbounds nuw i8, ptr %17, i64 392
  %19 = load ptr, ptr %18, align 8
  tail call void @_ZN7QWidget10setEnabledEb(ptr noundef align 8 dereferenceable_or_null(40) %19, i1 noundef zeroext %2)
  %20 = load ptr, ptr %4, align 8
  %21 = getelementptr inbounds nuw i8, ptr %20, i64 400
  %22 = load ptr, ptr %21, align 8
  tail call void @_ZN7QWidget10setEnabledEb(ptr noundef align 8 dereferenceable_or_null(40) %22, i1 noundef zeroext %2)
  ret void
}